target datalayout = "e-m:e-p270:32:32-p271:32:32-p272:64:64-i64:64-i128:128-f80:128-n8:16:32:64-S128"
target triple = "x86_64-pc-linux-gnu"

%struct.strvec = type { ptr, i64, i64 }
%struct.child_process = type { %struct.strvec, %struct.strvec, i32, i32, i64, ptr, ptr, i32, i32, i32, ptr, i16, ptr }

@.str.176 = private unnamed_addr constant [10 x i8] c"launchctl\00", align 1
@.str.243 = private unnamed_addr constant [26 x i8] c"failed to start launchctl\00", align 1
@.str.244 = private unnamed_addr constant [10 x i8] c"bootstrap\00", align 1
@.str.245 = private unnamed_addr constant [8 x i8] c"bootout\00", align 1
@.str.246 = private unnamed_addr constant [7 x i8] c"gui/%d\00", align 1

; Function Attrs: nounwind uwtable
define internal ptr @launchctl_get_uid() #0 {
  %1 = call i32 @getuid() #11
  %2 = call ptr (ptr, ...) @xstrfmt(ptr noundef @.str.246, i32 noundef %1)
  ret ptr %2
}

; Function Attrs: nounwind uwtable
define internal i32 @launchctl_boot_plist(i32 noundef %0, ptr noundef %1) #0 {
  %3 = alloca i32, align 4
  %4 = alloca ptr, align 8
  %5 = alloca ptr, align 8
  %6 = alloca i32, align 4
  %7 = alloca %struct.child_process, align 8
  %8 = alloca ptr, align 8
  store i32 %0, ptr %3, align 4, !tbaa !4
  store ptr %1, ptr %4, align 8, !tbaa !11
  call void @llvm.lifetime.start.p0(i64 8, ptr %5) #11
  call void @llvm.lifetime.start.p0(i64 4, ptr %6) #11
  call void @llvm.lifetime.start.p0(i64 120, ptr %7) #11
  call void @llvm.memcpy.p0.p0.i64(ptr align 8 %7, ptr align 8 @__const.launchctl_boot_plist.child, i64 120, i1 false)
  call void @llvm.lifetime.start.p0(i64 8, ptr %8) #11
  %9 = call ptr @launchctl_get_uid()
  store ptr %9, ptr %8, align 8, !tbaa !11
  %10 = call i32 @get_schedule_cmd(ptr noundef @.str.176, ptr noundef null, ptr noundef %5)
  %11 = getelementptr inbounds nuw %struct.child_process, ptr %7, i32 0, i32 0
  %12 = load ptr, ptr %5, align 8, !tbaa !11
  call void @strvec_split(ptr noundef %11, ptr noundef %12)
  %13 = getelementptr inbounds nuw %struct.child_process, ptr %7, i32 0, i32 0
  %14 = load i32, ptr %3, align 4, !tbaa !4
  %15 = icmp ne i32 %14, 0
  %16 = select i1 %15, ptr @.str.244, ptr @.str.245
  %17 = load ptr, ptr %8, align 8, !tbaa !11
  %18 = load ptr, ptr %4, align 8, !tbaa !11
  call void (ptr, ...) @strvec_pushl(ptr noundef %13, ptr noundef %16, ptr noundef %17, ptr noundef %18, ptr noundef null)
  %19 = getelementptr inbounds nuw %struct.child_process, ptr %7, i32 0, i32 11
  %20 = load i16, ptr %19, align 8
  %21 = and i16 %20, -5
  %22 = or i16 %21, 4
  store i16 %22, ptr %19, align 8
  %23 = getelementptr inbounds nuw %struct.child_process, ptr %7, i32 0, i32 11
  %24 = load i16, ptr %23, align 8
  %25 = and i16 %24, -3
  %26 = or i16 %25, 2
  store i16 %26, ptr %23, align 8
  %27 = call i32 @start_command(ptr noundef %7)
  %28 = icmp ne i32 %27, 0
  br i1 %28, label %29, label %31

29:                                               ; preds = %2
  %30 = call ptr @_(ptr noundef @.str.243)
  call void (ptr, ...) @die(ptr noundef %30) #12
  unreachable

31:                                               ; preds = %2
  %32 = call i32 @finish_command(ptr noundef %7)
  store i32 %32, ptr %6, align 4, !tbaa !4
  %33 = load ptr, ptr %5, align 8, !tbaa !11
  call void @free(ptr noundef %33) #11
  %34 = load ptr, ptr %8, align 8, !tbaa !11
  call void @free(ptr noundef %34) #11
  %35 = load i32, ptr %6, align 4, !tbaa !4
  call void @llvm.lifetime.end.p0(i64 8, ptr %8) #11
  call void @llvm.lifetime.end.p0(i64 120, ptr %7) #11
  call void @llvm.lifetime.end.p0(i64 4, ptr %6) #11
  call void @llvm.lifetime.end.p0(i64 8, ptr %5) #11
  ret i32 %35
}