; Function Attrs: nounwind uwtable
define internal fastcc i32 @launchctl_boot_plist(i32 noundef range(i32 0, 2) %0, ptr noundef nonnull %1) unnamed_addr #0 {
  %3 = alloca ptr, align 8
  %4 = alloca %struct.child_process, align 8
  call void @llvm.lifetime.start.p0(i64 8, ptr nonnull %3) #21
  call void @llvm.lifetime.start.p0(i64 120, ptr nonnull %4) #21
  call void @llvm.memcpy.p0.p0.i64(ptr noundef nonnull align 8 dereferenceable(120) %4, ptr noundef nonnull align 8 dereferenceable(120) @__const.schtasks_remove_task.child, i64 120, i1 false)
  %5 = tail call i32 @getuid() #21
  %6 = tail call ptr (ptr, ...) @xstrfmt(ptr noundef nonnull @.str.246, i32 noundef %5) #21
  %7 = call fastcc i32 @get_schedule_cmd(ptr noundef nonnull @.str.176, ptr noundef null, ptr noundef nonnull %3)
  %8 = load ptr, ptr %3, align 8, !tbaa !26
  call void @strvec_split(ptr noundef nonnull %4, ptr noundef %8) #21
  %.not = icmp eq i32 %0, 0
  %9 = select i1 %.not, ptr @.str.245, ptr @.str.244
  call void (ptr, ...) @strvec_pushl(ptr noundef nonnull %4, ptr noundef nonnull %9, ptr noundef %6, ptr noundef nonnull %1, ptr noundef null) #21
  %10 = getelementptr inbounds nuw i8, ptr %4, i64 104
  %11 = load i16, ptr %10, align 8
  %12 = or i16 %11, 6
  store i16 %12, ptr %10, align 8
  %13 = call i32 @start_command(ptr noundef nonnull %4) #21
  %.not4 = icmp eq i32 %13, 0
  br i1 %.not4, label %16, label %14

14:                                               ; preds = %2
  %15 = call fastcc ptr @_(ptr noundef nonnull @.str.243)
  call void (ptr, ...) @die(ptr noundef %15) #22
  unreachable

16:                                               ; preds = %2
  %17 = call i32 @finish_command(ptr noundef nonnull %4) #21
  %18 = load ptr, ptr %3, align 8, !tbaa !26
  call void @free(ptr noundef %18) #21
  call void @free(ptr noundef %6) #21
  call void @llvm.lifetime.end.p0(i64 120, ptr nonnull %4) #21
  call void @llvm.lifetime.end.p0(i64 8, ptr nonnull %3) #21
  ret i32 %17
}